; Function Attrs: mustprogress nofree norecurse nosync nounwind willreturn memory(read, argmem: readwrite, inaccessiblemem: none) uwtable
define hidden noundef zeroext i1 @_ZNK13proof_checker10match_consEPK4exprRPS0_S4_(ptr nocapture noundef nonnull readonly align 8 dereferenceable(156) %this, ptr nocapture noundef readonly %e, ptr nocapture noundef nonnull writeonly align 8 dereferenceable(8) %a, ptr nocapture noundef nonnull writeonly align 8 dereferenceable(8) %b) local_unnamed_addr #9 align 2 {
entry:
  %m_kind.i.i = getelementptr inbounds i8, ptr %e, i64 4
  %bf.load.i.i = load i32, ptr %m_kind.i.i, align 4
  %bf.clear.i.i = and i32 %bf.load.i.i, 65535
  %cmp.i = icmp eq i32 %bf.clear.i.i, 0
  br i1 %cmp.i, label %land.lhs.true, label %return

land.lhs.true:                                    ; preds = %entry
  %m_decl.i.i = getelementptr inbounds i8, ptr %e, i64 16
  %0 = load ptr, ptr %m_decl.i.i, align 8
  %m_info.i.i = getelementptr inbounds i8, ptr %0, i64 24
  %1 = load ptr, ptr %m_info.i.i, align 8
  %cmp.i.i = icmp eq ptr %1, null
  br i1 %cmp.i.i, label %return, label %_ZNK3app13get_family_idEv.exit.thread

_ZNK3app13get_family_idEv.exit.thread:            ; preds = %land.lhs.true
  %2 = load i32, ptr %1, align 8
  %m_hyp_fid12 = getelementptr inbounds i8, ptr %this, i64 88
  %3 = load i32, ptr %m_hyp_fid12, align 8
  %cmp13 = icmp eq i32 %2, %3
  br i1 %cmp13, label %_ZNK3app13get_decl_kindEv.exit, label %return

_ZNK3app13get_decl_kindEv.exit:                   ; preds = %_ZNK3app13get_family_idEv.exit.thread
  %m_kind.i.i.i = getelementptr inbounds i8, ptr %1, i64 4
  %4 = load i32, ptr %m_kind.i.i.i, align 4
  %cmp7 = icmp eq i32 %4, 0
  br i1 %cmp7, label %if.then, label %return

if.then:                                          ; preds = %_ZNK3app13get_decl_kindEv.exit
  %m_args.i = getelementptr inbounds i8, ptr %e, i64 32
  %5 = load ptr, ptr %m_args.i, align 8
  store ptr %5, ptr %a, align 8
  %arrayidx.i = getelementptr inbounds i8, ptr %e, i64 40
  %6 = load ptr, ptr %arrayidx.i, align 8
  store ptr %6, ptr %b, align 8
  br label %return

return:                                           ; preds = %land.lhs.true, %_ZNK3app13get_family_idEv.exit.thread, %entry, %_ZNK3app13get_decl_kindEv.exit, %if.then
  %retval.0 = phi i1 [ true, %if.then ], [ false, %_ZNK3app13get_decl_kindEv.exit ], [ false, %entry ], [ false, %_ZNK3app13get_family_idEv.exit.thread ], [ false, %land.lhs.true ]
  ret i1 %retval.0
}